; Function Attrs: mustprogress nounwind uwtable
define hidden { ptr, i32 } @_ZN4llvm16DAGTypeLegalizer23PromoteIntOp_SINT_TO_FPEPNS_6SDNodeE(ptr noundef nonnull align 8 dereferenceable(2512) %0, ptr noundef %1) local_unnamed_addr #0 align 2 {
  %3 = getelementptr inbounds nuw i8, ptr %1, i64 24
  %4 = load i32, ptr %3, align 8
  %5 = icmp eq i32 %4, 447
  %6 = getelementptr inbounds nuw i8, ptr %0, i64 8
  %7 = load ptr, ptr %6, align 8
  %8 = getelementptr inbounds nuw i8, ptr %1, i64 40
  %9 = load ptr, ptr %8, align 8
  %.sroa.012.0.copyload = load ptr, ptr %9, align 8
  %.sroa.213.0..sroa_idx = getelementptr inbounds i8, ptr %9, i64 8
  %.sroa.213.0.copyload = load i32, ptr %.sroa.213.0..sroa_idx, align 8
  %10 = tail call { ptr, i32 } @_ZN4llvm16DAGTypeLegalizer19SExtPromotedIntegerENS_7SDValueE(ptr noundef nonnull align 8 dereferenceable(2512) %0, ptr %.sroa.012.0.copyload, i32 %.sroa.213.0.copyload)
  %.fca.0.extract8 = extractvalue { ptr, i32 } %10, 0
  %.fca.1.extract9 = extractvalue { ptr, i32 } %10, 1
  br i1 %5, label %11, label %16

11:                                               ; preds = %2
  %12 = load ptr, ptr %8, align 8
  %13 = getelementptr inbounds i8, ptr %12, i64 40
  %.sroa.05.0.copyload = load ptr, ptr %13, align 8
  %.sroa.26.0..sroa_idx = getelementptr inbounds i8, ptr %12, i64 48
  %.sroa.26.0.copyload = load i32, ptr %.sroa.26.0..sroa_idx, align 8
  %14 = getelementptr inbounds i8, ptr %12, i64 80
  %15 = tail call noundef ptr @_ZN4llvm12SelectionDAG18UpdateNodeOperandsEPNS_6SDNodeENS_7SDValueES3_S3_(ptr noundef nonnull align 8 dereferenceable(904) %7, ptr noundef nonnull %1, ptr %.fca.0.extract8, i32 %.fca.1.extract9, ptr %.sroa.05.0.copyload, i32 %.sroa.26.0.copyload, ptr noundef nonnull byval(%"class.llvm::SDValue") align 8 %14) #17
  br label %18

16:                                               ; preds = %2
  %17 = tail call noundef ptr @_ZN4llvm12SelectionDAG18UpdateNodeOperandsEPNS_6SDNodeENS_7SDValueE(ptr noundef nonnull align 8 dereferenceable(904) %7, ptr noundef nonnull %1, ptr %.fca.0.extract8, i32 %.fca.1.extract9) #17
  br label %18

18:                                               ; preds = %16, %11
  %.sroa.0.0 = phi ptr [ %15, %11 ], [ %17, %16 ]
  %.fca.0.insert = insertvalue { ptr, i32 } poison, ptr %.sroa.0.0, 0
  %.fca.1.insert = insertvalue { ptr, i32 } %.fca.0.insert, i32 0, 1
  ret { ptr, i32 } %.fca.1.insert
}